; ModuleID = '20/470.c'
source_filename = "20/470.c"
target datalayout = "e-m:e-p270:32:32-p271:32:32-p272:64:64-i64:64-f80:128-n8:16:32:64-S128"
target triple = "x86_64-pc-linux-gnu"

@.str = private unnamed_addr constant [5 x i8] c"%s%s\00", align 1
@.str.1 = private unnamed_addr constant [3 x i8] c"%s\00", align 1
@.str.2 = private unnamed_addr constant [2 x i8] c"\0A\00", align 1

; Function Attrs: noinline nounwind uwtable
define dso_local void @main() #0 {
  %1 = alloca i32, align 4
  %2 = alloca i32, align 4
  %3 = alloca [12 x i8], align 1
  %4 = alloca [5 x i8], align 1
  %5 = alloca [20 x i8], align 16
  %6 = alloca i32, align 4
  %7 = alloca i32, align 4
  %8 = alloca i8, align 1
  br label %9

9:                                                ; preds = %104, %0
  %10 = getelementptr inbounds [12 x i8], [12 x i8]* %3, i64 0, i64 0
  %11 = getelementptr inbounds [5 x i8], [5 x i8]* %4, i64 0, i64 0
  %12 = call i32 (i8*, ...) @__isoc99_scanf(i8* getelementptr inbounds ([5 x i8], [5 x i8]* @.str, i64 0, i64 0), i8* %10, i8* %11)
  %13 = icmp ne i32 %12, -1
  br i1 %13, label %14, label %111

14:                                               ; preds = %9
  %15 = getelementptr inbounds [12 x i8], [12 x i8]* %3, i64 0, i64 0
  %16 = call i64 @strlen(i8* %15) #3
  %17 = trunc i64 %16 to i32
  store i32 %17, i32* %1, align 4
  %18 = getelementptr inbounds [12 x i8], [12 x i8]* %3, i64 0, i64 0
  %19 = load i8, i8* %18, align 1
  store i8 %19, i8* %8, align 1
  store i32 0, i32* %6, align 4
  store i32 0, i32* %2, align 4
  store i32 0, i32* %7, align 4
  br label %20

20:                                               ; preds = %41, %14
  %21 = load i32, i32* %7, align 4
  %22 = load i32, i32* %1, align 4
  %23 = sub nsw i32 %22, 1
  %24 = icmp sle i32 %21, %23
  br i1 %24, label %25, label %44

25:                                               ; preds = %20
  %26 = load i32, i32* %7, align 4
  %27 = sext i32 %26 to i64
  %28 = getelementptr inbounds [12 x i8], [12 x i8]* %3, i64 0, i64 %27
  %29 = load i8, i8* %28, align 1
  %30 = sext i8 %29 to i32
  %31 = load i8, i8* %8, align 1
  %32 = sext i8 %31 to i32
  %33 = icmp sgt i32 %30, %32
  br i1 %33, label %34, label %40

34:                                               ; preds = %25
  %35 = load i32, i32* %7, align 4
  %36 = sext i32 %35 to i64
  %37 = getelementptr inbounds [12 x i8], [12 x i8]* %3, i64 0, i64 %36
  %38 = load i8, i8* %37, align 1
  store i8 %38, i8* %8, align 1
  %39 = load i32, i32* %7, align 4
  store i32 %39, i32* %6, align 4
  br label %40

40:                                               ; preds = %34, %25
  br label %41

41:                                               ; preds = %40
  %42 = load i32, i32* %7, align 4
  %43 = add nsw i32 %42, 1
  store i32 %43, i32* %7, align 4
  br label %20

44:                                               ; preds = %20
  store i32 0, i32* %7, align 4
  br label %45

45:                                               ; preds = %59, %44
  %46 = load i32, i32* %7, align 4
  %47 = load i32, i32* %6, align 4
  %48 = icmp sle i32 %46, %47
  br i1 %48, label %49, label %62

49:                                               ; preds = %45
  %50 = load i32, i32* %7, align 4
  %51 = sext i32 %50 to i64
  %52 = getelementptr inbounds [12 x i8], [12 x i8]* %3, i64 0, i64 %51
  %53 = load i8, i8* %52, align 1
  %54 = load i32, i32* %2, align 4
  %55 = sext i32 %54 to i64
  %56 = getelementptr inbounds [20 x i8], [20 x i8]* %5, i64 0, i64 %55
  store i8 %53, i8* %56, align 1
  %57 = load i32, i32* %2, align 4
  %58 = add nsw i32 %57, 1
  store i32 %58, i32* %2, align 4
  br label %59

59:                                               ; preds = %49
  %60 = load i32, i32* %7, align 4
  %61 = add nsw i32 %60, 1
  store i32 %61, i32* %7, align 4
  br label %45

62:                                               ; preds = %45
  store i32 0, i32* %7, align 4
  br label %63

63:                                               ; preds = %80, %62
  %64 = load i32, i32* %7, align 4
  %65 = sext i32 %64 to i64
  %66 = getelementptr inbounds [5 x i8], [5 x i8]* %4, i64 0, i64 0
  %67 = call i64 @strlen(i8* %66) #3
  %68 = sub i64 %67, 1
  %69 = icmp ule i64 %65, %68
  br i1 %69, label %70, label %83

70:                                               ; preds = %63
  %71 = load i32, i32* %7, align 4
  %72 = sext i32 %71 to i64
  %73 = getelementptr inbounds [5 x i8], [5 x i8]* %4, i64 0, i64 %72
  %74 = load i8, i8* %73, align 1
  %75 = load i32, i32* %2, align 4
  %76 = sext i32 %75 to i64
  %77 = getelementptr inbounds [20 x i8], [20 x i8]* %5, i64 0, i64 %76
  store i8 %74, i8* %77, align 1
  %78 = load i32, i32* %2, align 4
  %79 = add nsw i32 %78, 1
  store i32 %79, i32* %2, align 4
  br label %80

80:                                               ; preds = %70
  %81 = load i32, i32* %7, align 4
  %82 = add nsw i32 %81, 1
  store i32 %82, i32* %7, align 4
  br label %63

83:                                               ; preds = %63
  %84 = load i32, i32* %6, align 4
  %85 = add nsw i32 %84, 1
  store i32 %85, i32* %7, align 4
  br label %86

86:                                               ; preds = %101, %83
  %87 = load i32, i32* %7, align 4
  %88 = load i32, i32* %1, align 4
  %89 = sub nsw i32 %88, 1
  %90 = icmp sle i32 %87, %89
  br i1 %90, label %91, label %104

91:                                               ; preds = %86
  %92 = load i32, i32* %7, align 4
  %93 = sext i32 %92 to i64
  %94 = getelementptr inbounds [12 x i8], [12 x i8]* %3, i64 0, i64 %93
  %95 = load i8, i8* %94, align 1
  %96 = load i32, i32* %2, align 4
  %97 = sext i32 %96 to i64
  %98 = getelementptr inbounds [20 x i8], [20 x i8]* %5, i64 0, i64 %97
  store i8 %95, i8* %98, align 1
  %99 = load i32, i32* %2, align 4
  %100 = add nsw i32 %99, 1
  store i32 %100, i32* %2, align 4
  br label %101

101:                                              ; preds = %91
  %102 = load i32, i32* %7, align 4
  %103 = add nsw i32 %102, 1
  store i32 %103, i32* %7, align 4
  br label %86

104:                                              ; preds = %86
  %105 = load i32, i32* %2, align 4
  %106 = sext i32 %105 to i64
  %107 = getelementptr inbounds [20 x i8], [20 x i8]* %5, i64 0, i64 %106
  store i8 0, i8* %107, align 1
  %108 = getelementptr inbounds [20 x i8], [20 x i8]* %5, i64 0, i64 0
  %109 = call i32 (i8*, ...) @printf(i8* getelementptr inbounds ([3 x i8], [3 x i8]* @.str.1, i64 0, i64 0), i8* %108)
  %110 = call i32 (i8*, ...) @printf(i8* getelementptr inbounds ([2 x i8], [2 x i8]* @.str.2, i64 0, i64 0))
  br label %9

111:                                              ; preds = %9
  ret void
}

declare dso_local i32 @__isoc99_scanf(i8*, ...) #1

; Function Attrs: nounwind readonly
declare dso_local i64 @strlen(i8*) #2

declare dso_local i32 @printf(i8*, ...) #1


!llvm.module.flags = !{!0}
!llvm.ident = !{!1}

!0 = !{i32 1, !"wchar_size", i32 4}
!1 = !{!"clang version 10.0.0-4ubuntu1 "}
